; Function Attrs: mustprogress uwtable
define hidden noundef range(i32 1, 5) i32 @_ZN11bv_rewriter18mk_bv_rotate_rightEjP4exprR7obj_refIS0_11ast_managerE(ptr noundef nonnull align 8 dereferenceable(157) %0, i32 noundef %1, ptr noundef nonnull %2, ptr noundef nonnull align 8 captures(none) dereferenceable(16) %3) local_unnamed_addr #3 align 2 {
  %5 = tail call noundef ptr @_ZNK4expr8get_sortEv(ptr noundef nonnull align 4 dereferenceable(16) %2)
  %6 = getelementptr inbounds nuw i8, ptr %5, i64 24
  %7 = load ptr, ptr %6, align 8, !tbaa !57
  %8 = getelementptr inbounds nuw i8, ptr %7, i64 8
  %9 = load ptr, ptr %8, align 8, !tbaa !68
  %10 = getelementptr inbounds nuw i8, ptr %9, i64 8
  %11 = load i8, ptr %10, align 8, !tbaa !84
  %.not.i.i.i.i.i.i = icmp eq i8 %11, 0
  br i1 %.not.i.i.i.i.i.i, label %_ZNK11bv_rewriter11get_bv_sizeEP4expr.exit, label %12

12:                                               ; preds = %4
  %13 = tail call ptr @__cxa_allocate_exception(i64 16) #24
  store ptr getelementptr inbounds nuw inrange(-16, 24) (i8, ptr @_ZTVSt18bad_variant_access, i64 16), ptr %13, align 8, !tbaa !86
  %14 = getelementptr inbounds nuw i8, ptr %13, i64 8
  store ptr @.str.30, ptr %14, align 8, !tbaa !88
  tail call void @__cxa_throw(ptr nonnull %13, ptr nonnull @_ZTISt18bad_variant_access, ptr nonnull @_ZNSt9exceptionD2Ev) #25
  unreachable

_ZNK11bv_rewriter11get_bv_sizeEP4expr.exit:       ; preds = %4
  %15 = load i32, ptr %9, align 4, !tbaa !91
  %16 = urem i32 %1, %15
  %17 = sub i32 %15, %16
  %18 = tail call noundef i32 @_ZN11bv_rewriter17mk_bv_rotate_leftEjP4exprR7obj_refIS0_11ast_managerE(ptr noundef nonnull align 8 dereferenceable(157) %0, i32 noundef %17, ptr noundef %2, ptr noundef nonnull align 8 dereferenceable(16) %3)
  ret i32 %18
}